target datalayout = "e-m:e-p270:32:32-p271:32:32-p272:64:64-i64:64-i128:128-f80:128-n8:16:32:64-S128"
target triple = "x86_64-pc-linux-gnu"

%"class.llvm::StringRef" = type { ptr, i64 }
%"class.llvm::SmallVectorBase" = type { ptr, i32, i32 }
%struct.tm = type { i32, i32, i32, i32, i32, i32, i32, i32, i32, i64, ptr }
%"class.(anonymous namespace)::MasmParser" = type { %"class.llvm::MCAsmParser.base", [6 x i8], %"class.llvm::AsmLexer", ptr, ptr, ptr, ptr, ptr, ptr, %"class.std::unique_ptr", i32, %struct.tm, %"class.llvm::BitVector", %"class.llvm::AsmCond", %"class.std::vector", %"class.llvm::StringMap", %"class.llvm::StringMap.15", %"class.llvm::SmallVector.16", %"class.llvm::StringMap.21", %"class.llvm::StringMap.22", %"class.std::vector.23", %"class.std::deque", i32, [4 x i8], %"struct.(anonymous namespace)::MasmParser::CppHashInfoTy", %"class.llvm::StringRef", %"class.llvm::SmallVector.31", i32, i8, i8, i8, i32, i16, %"class.llvm::StringMap.36", %"class.llvm::StringMap.37", %"class.llvm::StringMap.38" }
%"class.llvm::MCAsmParser.base" = type <{ ptr, ptr, %"class.llvm::SmallVector", i8, i8 }>
%"class.llvm::SmallVector" = type { %"class.llvm::SmallVectorImpl" }
%"class.llvm::SmallVectorImpl" = type { %"class.llvm::SmallVectorTemplateBase" }
%"class.llvm::SmallVectorTemplateBase" = type { %"class.llvm::SmallVectorTemplateCommon" }
%"class.llvm::SmallVectorTemplateCommon" = type { %"class.llvm::SmallVectorBase" }
%"class.llvm::AsmLexer" = type <{ %"class.llvm::MCAsmLexer", ptr, ptr, %"class.llvm::StringRef", i8, i8, i8, i8, [4 x i8] }>
%"class.llvm::MCAsmLexer" = type { ptr, %"class.llvm::SmallVector.0", %"class.llvm::SMLoc", %"class.std::__cxx11::basic_string", ptr, i8, i8, i8, i8, i8, i8, i8, i8, i8, i32, i8, i8, ptr }
%"class.llvm::SmallVector.0" = type { %"class.llvm::SmallVectorImpl.1", %"struct.llvm::SmallVectorStorage.4" }
%"class.llvm::SmallVectorImpl.1" = type { %"class.llvm::SmallVectorTemplateBase.2" }
%"class.llvm::SmallVectorTemplateBase.2" = type { %"class.llvm::SmallVectorTemplateCommon.3" }
%"class.llvm::SmallVectorTemplateCommon.3" = type { %"class.llvm::SmallVectorBase" }
%"struct.llvm::SmallVectorStorage.4" = type { [40 x i8] }
%"class.llvm::SMLoc" = type { ptr }
%"class.std::__cxx11::basic_string" = type { %"struct.std::__cxx11::basic_string<char>::_Alloc_hider", i64, %union.anon }
%"struct.std::__cxx11::basic_string<char>::_Alloc_hider" = type { ptr }
%union.anon = type { i64, [8 x i8] }
%"class.std::unique_ptr" = type { %"struct.std::__uniq_ptr_data" }
%"struct.std::__uniq_ptr_data" = type { %"class.std::__uniq_ptr_impl" }
%"class.std::__uniq_ptr_impl" = type { %"class.std::tuple" }
%"class.std::tuple" = type { %"struct.std::_Tuple_impl" }
%"struct.std::_Tuple_impl" = type { %"struct.std::_Head_base.6" }
%"struct.std::_Head_base.6" = type { ptr }
%"class.llvm::BitVector" = type <{ %"class.llvm::SmallVector.7", i32, [4 x i8] }>
%"class.llvm::SmallVector.7" = type { %"class.llvm::SmallVectorImpl.8", %"struct.llvm::SmallVectorStorage.11" }
%"class.llvm::SmallVectorImpl.8" = type { %"class.llvm::SmallVectorTemplateBase.9" }
%"class.llvm::SmallVectorTemplateBase.9" = type { %"class.llvm::SmallVectorTemplateCommon.10" }
%"class.llvm::SmallVectorTemplateCommon.10" = type { %"class.llvm::SmallVectorBase" }
%"struct.llvm::SmallVectorStorage.11" = type { [48 x i8] }
%"class.llvm::AsmCond" = type <{ i32, i8, i8, [2 x i8] }>
%"class.std::vector" = type { %"struct.std::_Vector_base" }
%"struct.std::_Vector_base" = type { %"struct.std::_Vector_base<llvm::AsmCond, std::allocator<llvm::AsmCond>>::_Vector_impl" }
%"struct.std::_Vector_base<llvm::AsmCond, std::allocator<llvm::AsmCond>>::_Vector_impl" = type { %"struct.std::_Vector_base<llvm::AsmCond, std::allocator<llvm::AsmCond>>::_Vector_impl_data" }
%"struct.std::_Vector_base<llvm::AsmCond, std::allocator<llvm::AsmCond>>::_Vector_impl_data" = type { ptr, ptr, ptr }
%"class.llvm::StringMap" = type { %"class.llvm::StringMapImpl" }
%"class.llvm::StringMapImpl" = type { ptr, i32, i32, i32, i32 }
%"class.llvm::StringMap.15" = type { %"class.llvm::StringMapImpl" }
%"class.llvm::SmallVector.16" = type { %"class.llvm::SmallVectorImpl.17", %"struct.llvm::SmallVectorStorage.20" }
%"class.llvm::SmallVectorImpl.17" = type { %"class.llvm::SmallVectorTemplateBase.18" }
%"class.llvm::SmallVectorTemplateBase.18" = type { %"class.llvm::SmallVectorTemplateCommon.19" }
%"class.llvm::SmallVectorTemplateCommon.19" = type { %"class.llvm::SmallVectorBase" }
%"struct.llvm::SmallVectorStorage.20" = type { [88 x i8] }
%"class.llvm::StringMap.21" = type { %"class.llvm::StringMapImpl" }
%"class.llvm::StringMap.22" = type { %"class.llvm::StringMapImpl" }
%"class.std::vector.23" = type { %"struct.std::_Vector_base.24" }
%"struct.std::_Vector_base.24" = type { %"struct.std::_Vector_base<(anonymous namespace)::MacroInstantiation *, std::allocator<(anonymous namespace)::MacroInstantiation *>>::_Vector_impl" }
%"struct.std::_Vector_base<(anonymous namespace)::MacroInstantiation *, std::allocator<(anonymous namespace)::MacroInstantiation *>>::_Vector_impl" = type { %"struct.std::_Vector_base<(anonymous namespace)::MacroInstantiation *, std::allocator<(anonymous namespace)::MacroInstantiation *>>::_Vector_impl_data" }
%"struct.std::_Vector_base<(anonymous namespace)::MacroInstantiation *, std::allocator<(anonymous namespace)::MacroInstantiation *>>::_Vector_impl_data" = type { ptr, ptr, ptr }
%"class.std::deque" = type { %"class.std::_Deque_base" }
%"class.std::_Deque_base" = type { %"struct.std::_Deque_base<llvm::MCAsmMacro, std::allocator<llvm::MCAsmMacro>>::_Deque_impl" }
%"struct.std::_Deque_base<llvm::MCAsmMacro, std::allocator<llvm::MCAsmMacro>>::_Deque_impl" = type { %"struct.std::_Deque_base<llvm::MCAsmMacro, std::allocator<llvm::MCAsmMacro>>::_Deque_impl_data" }
%"struct.std::_Deque_base<llvm::MCAsmMacro, std::allocator<llvm::MCAsmMacro>>::_Deque_impl_data" = type { ptr, i64, %"struct.std::_Deque_iterator", %"struct.std::_Deque_iterator" }
%"struct.std::_Deque_iterator" = type { ptr, ptr, ptr, ptr }
%"struct.(anonymous namespace)::MasmParser::CppHashInfoTy" = type <{ %"class.llvm::StringRef", i64, %"class.llvm::SMLoc", i32, [4 x i8] }>
%"class.llvm::SmallVector.31" = type { %"class.llvm::SmallVectorImpl.32", %"struct.llvm::SmallVectorStorage.35" }
%"class.llvm::SmallVectorImpl.32" = type { %"class.llvm::SmallVectorTemplateBase.33" }
%"class.llvm::SmallVectorTemplateBase.33" = type { %"class.llvm::SmallVectorTemplateCommon.34" }
%"class.llvm::SmallVectorTemplateCommon.34" = type { %"class.llvm::SmallVectorBase" }
%"struct.llvm::SmallVectorStorage.35" = type { [224 x i8] }
%"class.llvm::StringMap.36" = type { %"class.llvm::StringMapImpl" }
%"class.llvm::StringMap.37" = type { %"class.llvm::StringMapImpl" }
%"class.llvm::StringMap.38" = type { %"class.llvm::StringMapImpl" }
%"class.llvm::APInt" = type <{ %union.anon.274, i32, [4 x i8] }>
%union.anon.274 = type { i64 }
%"class.llvm::AsmToken" = type { i32, %"class.llvm::StringRef", %"class.llvm::APInt" }

; Function Attrs: mustprogress nounwind uwtable
define linkonce_odr hidden noundef zeroext i1 @_ZNK4llvm5APInt12isSingleWordEv(ptr noundef nonnull align 8 dereferenceable(12) %0) #0 comdat align 2 {
  %2 = alloca ptr, align 8
  store ptr %0, ptr %2, align 8
  %3 = load ptr, ptr %2, align 8
  %4 = getelementptr inbounds nuw %"class.llvm::APInt", ptr %3, i32 0, i32 1
  %5 = load i32, ptr %4, align 8
  %6 = icmp ule i32 %5, 64
  ret i1 %6
}

; Function Attrs: mustprogress nounwind uwtable
define linkonce_odr hidden noundef zeroext i1 @_ZNK4llvm5APInt12needsCleanupEv(ptr noundef nonnull align 8 dereferenceable(12) %0) #0 comdat align 2 {
  %2 = alloca ptr, align 8
  store ptr %0, ptr %2, align 8
  %3 = load ptr, ptr %2, align 8
  %4 = call noundef zeroext i1 @_ZNK4llvm5APInt12isSingleWordEv(ptr noundef nonnull align 8 dereferenceable(12) %3)
  %5 = xor i1 %4, true
  ret i1 %5
}

; Function Attrs: mustprogress nounwind uwtable
define linkonce_odr hidden noundef ptr @_ZNK4llvm25SmallVectorTemplateCommonINS_8AsmTokenEvE5beginEv(ptr noundef nonnull align 8 dereferenceable(16) %0) #0 comdat align 2 {
  %2 = alloca ptr, align 8
  store ptr %0, ptr %2, align 8
  %3 = load ptr, ptr %2, align 8
  %4 = getelementptr inbounds nuw %"class.llvm::SmallVectorBase", ptr %3, i32 0, i32 0
  %5 = load ptr, ptr %4, align 8
  ret ptr %5
}

; Function Attrs: mustprogress nounwind uwtable
define linkonce_odr hidden void @_ZN4llvm5APIntD2Ev(ptr noundef nonnull align 8 dereferenceable(12) %0) unnamed_addr #0 comdat align 2 {
  %2 = alloca ptr, align 8
  store ptr %0, ptr %2, align 8
  %3 = load ptr, ptr %2, align 8
  %4 = call noundef zeroext i1 @_ZNK4llvm5APInt12needsCleanupEv(ptr noundef nonnull align 8 dereferenceable(12) %3)
  br i1 %4, label %5, label %11

5:                                                ; preds = %1
  %6 = getelementptr inbounds nuw %"class.llvm::APInt", ptr %3, i32 0, i32 0
  %7 = load ptr, ptr %6, align 8
  %8 = icmp eq ptr %7, null
  br i1 %8, label %10, label %9

9:                                                ; preds = %5
  call void @_ZdaPv(ptr noundef %7) #17
  br label %10

10:                                               ; preds = %9, %5
  br label %11

11:                                               ; preds = %10, %1
  ret void
}

; Function Attrs: mustprogress nounwind uwtable
define linkonce_odr hidden noundef nonnull align 8 dereferenceable(40) ptr @_ZN4llvm23SmallVectorTemplateBaseINS_8AsmTokenELb0EE19forward_value_paramERKS1_(ptr noundef nonnull align 8 dereferenceable(40) %0) #0 comdat align 2 {
  %2 = alloca ptr, align 8
  store ptr %0, ptr %2, align 8
  %3 = load ptr, ptr %2, align 8
  ret ptr %3
}

; Function Attrs: mustprogress nounwind uwtable
define linkonce_odr hidden noundef nonnull align 8 dereferenceable(40) ptr @_ZNK4llvm25SmallVectorTemplateCommonINS_8AsmTokenEvEixEm(ptr noundef nonnull align 8 dereferenceable(16) %0, i64 noundef %1) #0 comdat align 2 {
  %3 = alloca ptr, align 8
  %4 = alloca i64, align 8
  store ptr %0, ptr %3, align 8
  store i64 %1, ptr %4, align 8
  %5 = load ptr, ptr %3, align 8
  %6 = call noundef ptr @_ZNK4llvm25SmallVectorTemplateCommonINS_8AsmTokenEvE5beginEv(ptr noundef nonnull align 8 dereferenceable(16) %5)
  %7 = load i64, ptr %4, align 8
  %8 = getelementptr inbounds %"class.llvm::AsmToken", ptr %6, i64 %7
  ret ptr %8
}

; Function Attrs: mustprogress nounwind uwtable
define linkonce_odr hidden void @_ZN4llvm8AsmTokenD2Ev(ptr noundef nonnull align 8 dereferenceable(40) %0) unnamed_addr #0 comdat align 2 {
  %2 = alloca ptr, align 8
  store ptr %0, ptr %2, align 8
  %3 = load ptr, ptr %2, align 8
  %4 = getelementptr inbounds nuw %"class.llvm::AsmToken", ptr %3, i32 0, i32 2
  call void @_ZN4llvm5APIntD2Ev(ptr noundef nonnull align 8 dereferenceable(12) %4) #15
  ret void
}

; Function Attrs: mustprogress nounwind uwtable
define linkonce_odr hidden noundef ptr @_ZN4llvm15SmallVectorImplINS_8AsmTokenEE6insertEPS1_RKS1_(ptr noundef nonnull align 8 dereferenceable(16) %0, ptr noundef %1, ptr noundef nonnull align 8 dereferenceable(40) %2) #0 comdat align 2 {
  %4 = alloca ptr, align 8
  %5 = alloca ptr, align 8
  %6 = alloca ptr, align 8
  store ptr %0, ptr %4, align 8
  store ptr %1, ptr %5, align 8
  store ptr %2, ptr %6, align 8
  %7 = load ptr, ptr %4, align 8
  %8 = load ptr, ptr %5, align 8
  %9 = load ptr, ptr %6, align 8
  %10 = call noundef nonnull align 8 dereferenceable(40) ptr @_ZN4llvm23SmallVectorTemplateBaseINS_8AsmTokenELb0EE19forward_value_paramERKS1_(ptr noundef nonnull align 8 dereferenceable(40) %9)
  %11 = call noundef ptr @_ZN4llvm15SmallVectorImplINS_8AsmTokenEE15insert_one_implIRKS1_EEPS1_S6_OT_(ptr noundef nonnull align 8 dereferenceable(16) %7, ptr noundef %8, ptr noundef nonnull align 8 dereferenceable(40) %10)
  ret ptr %11
}

; Function Attrs: mustprogress nounwind uwtable
define linkonce_odr hidden noundef ptr @_ZN4llvm25SmallVectorTemplateCommonINS_8AsmTokenEvE5beginEv(ptr noundef nonnull align 8 dereferenceable(16) %0) #0 comdat align 2 {
  %2 = alloca ptr, align 8
  store ptr %0, ptr %2, align 8
  %3 = load ptr, ptr %2, align 8
  %4 = getelementptr inbounds nuw %"class.llvm::SmallVectorBase", ptr %3, i32 0, i32 0
  %5 = load ptr, ptr %4, align 8
  ret ptr %5
}

; Function Attrs: mustprogress nounwind uwtable
define linkonce_odr hidden noundef i32 @_ZNK4llvm8AsmToken7getKindEv(ptr noundef nonnull align 8 dereferenceable(40) %0) #0 comdat align 2 {
  %2 = alloca ptr, align 8
  store ptr %0, ptr %2, align 8
  %3 = load ptr, ptr %2, align 8
  %4 = getelementptr inbounds nuw %"class.llvm::AsmToken", ptr %3, i32 0, i32 0
  %5 = load i32, ptr %4, align 8
  ret i32 %5
}

; Function Attrs: mustprogress nounwind uwtable
define linkonce_odr hidden noundef nonnull align 8 dereferenceable(40) ptr @_ZN4llvm25SmallVectorTemplateCommonINS_8AsmTokenEvE5frontEv(ptr noundef nonnull align 8 dereferenceable(16) %0) #0 comdat align 2 {
  %2 = alloca ptr, align 8
  store ptr %0, ptr %2, align 8
  %3 = load ptr, ptr %2, align 8
  %4 = call noundef ptr @_ZN4llvm25SmallVectorTemplateCommonINS_8AsmTokenEvE5beginEv(ptr noundef nonnull align 8 dereferenceable(16) %3)
  %5 = getelementptr inbounds %"class.llvm::AsmToken", ptr %4, i64 0
  ret ptr %5
}

; Function Attrs: mustprogress nounwind uwtable
define linkonce_odr hidden noundef zeroext i1 @_ZNK4llvm8AsmToken5isNotENS0_9TokenKindE(ptr noundef nonnull align 8 dereferenceable(40) %0, i32 noundef %1) #0 comdat align 2 {
  %3 = alloca ptr, align 8
  %4 = alloca i32, align 4
  store ptr %0, ptr %3, align 8
  store i32 %1, ptr %4, align 4
  %5 = load ptr, ptr %3, align 8
  %6 = getelementptr inbounds nuw %"class.llvm::AsmToken", ptr %5, i32 0, i32 0
  %7 = load i32, ptr %6, align 8
  %8 = load i32, ptr %4, align 4
  %9 = icmp ne i32 %7, %8
  ret i1 %9
}

; Function Attrs: mustprogress nounwind uwtable
define linkonce_odr hidden noundef nonnull align 8 dereferenceable(40) ptr @_ZNK4llvm10MCAsmLexer6getTokEv(ptr noundef nonnull align 8 dereferenceable(144) %0) #0 comdat align 2 {
  %2 = alloca ptr, align 8
  store ptr %0, ptr %2, align 8
  %3 = load ptr, ptr %2, align 8
  %4 = getelementptr inbounds nuw %"class.llvm::MCAsmLexer", ptr %3, i32 0, i32 1
  %5 = call noundef nonnull align 8 dereferenceable(40) ptr @_ZNK4llvm25SmallVectorTemplateCommonINS_8AsmTokenEvEixEm(ptr noundef nonnull align 8 dereferenceable(16) %4, i64 noundef 0)
  ret ptr %5
}

; Function Attrs: mustprogress nounwind uwtable
define linkonce_odr hidden void @_ZN4llvm9StringRefC2EPKcm(ptr noundef nonnull align 8 dereferenceable(16) %0, ptr noundef %1, i64 noundef %2) unnamed_addr #0 comdat align 2 {
  %4 = alloca ptr, align 8
  %5 = alloca ptr, align 8
  %6 = alloca i64, align 8
  store ptr %0, ptr %4, align 8
  store ptr %1, ptr %5, align 8
  store i64 %2, ptr %6, align 8
  %7 = load ptr, ptr %4, align 8
  %8 = getelementptr inbounds nuw %"class.llvm::StringRef", ptr %7, i32 0, i32 0
  %9 = load ptr, ptr %5, align 8
  store ptr %9, ptr %8, align 8
  %10 = getelementptr inbounds nuw %"class.llvm::StringRef", ptr %7, i32 0, i32 1
  %11 = load i64, ptr %6, align 8
  store i64 %11, ptr %10, align 8
  ret void
}

; Function Attrs: mustprogress nounwind uwtable
define linkonce_odr hidden noundef nonnull align 8 dereferenceable(40) ptr @_ZN4llvm10MCAsmLexer3LexEv(ptr noundef nonnull align 8 dereferenceable(144) %0) #0 comdat align 2 {
  %2 = alloca ptr, align 8
  %3 = alloca %"class.llvm::AsmToken", align 8
  store ptr %0, ptr %2, align 8
  %4 = load ptr, ptr %2, align 8
  %5 = getelementptr inbounds nuw %"class.llvm::MCAsmLexer", ptr %4, i32 0, i32 1
  %6 = call noundef nonnull align 8 dereferenceable(40) ptr @_ZN4llvm25SmallVectorTemplateCommonINS_8AsmTokenEvE5frontEv(ptr noundef nonnull align 8 dereferenceable(16) %5)
  %7 = call noundef i32 @_ZNK4llvm8AsmToken7getKindEv(ptr noundef nonnull align 8 dereferenceable(40) %6)
  %8 = icmp eq i32 %7, 9
  %9 = getelementptr inbounds nuw %"class.llvm::MCAsmLexer", ptr %4, i32 0, i32 8
  %10 = zext i1 %8 to i8
  store i8 %10, ptr %9, align 1
  %11 = getelementptr inbounds nuw %"class.llvm::MCAsmLexer", ptr %4, i32 0, i32 1
  %12 = getelementptr inbounds nuw %"class.llvm::MCAsmLexer", ptr %4, i32 0, i32 1
  %13 = call noundef ptr @_ZN4llvm25SmallVectorTemplateCommonINS_8AsmTokenEvE5beginEv(ptr noundef nonnull align 8 dereferenceable(16) %12)
  %14 = call noundef ptr @_ZN4llvm15SmallVectorImplINS_8AsmTokenEE5eraseEPKS1_(ptr noundef nonnull align 8 dereferenceable(16) %11, ptr noundef %13)
  %15 = getelementptr inbounds nuw %"class.llvm::MCAsmLexer", ptr %4, i32 0, i32 1
  %16 = call noundef zeroext i1 @_ZNK4llvm15SmallVectorBaseIjE5emptyEv(ptr noundef nonnull align 8 dereferenceable(16) %15)
  br i1 %16, label %17, label %25

17:                                               ; preds = %1
  %18 = load ptr, ptr %4, align 8
  %19 = getelementptr inbounds ptr, ptr %18, i64 0
  %20 = load ptr, ptr %19, align 8
  call void %20(ptr dead_on_unwind writable sret(%"class.llvm::AsmToken") align 8 %3, ptr noundef nonnull align 8 dereferenceable(144) %4)
  %21 = getelementptr inbounds nuw %"class.llvm::MCAsmLexer", ptr %4, i32 0, i32 1
  %22 = getelementptr inbounds nuw %"class.llvm::MCAsmLexer", ptr %4, i32 0, i32 1
  %23 = call noundef ptr @_ZN4llvm25SmallVectorTemplateCommonINS_8AsmTokenEvE5beginEv(ptr noundef nonnull align 8 dereferenceable(16) %22)
  %24 = call noundef ptr @_ZN4llvm15SmallVectorImplINS_8AsmTokenEE6insertEPS1_RKS1_(ptr noundef nonnull align 8 dereferenceable(16) %21, ptr noundef %23, ptr noundef nonnull align 8 dereferenceable(40) %3)
  call void @_ZN4llvm8AsmTokenD2Ev(ptr noundef nonnull align 8 dereferenceable(40) %3) #15
  br label %25

25:                                               ; preds = %17, %1
  %26 = getelementptr inbounds nuw %"class.llvm::MCAsmLexer", ptr %4, i32 0, i32 1
  %27 = call noundef nonnull align 8 dereferenceable(40) ptr @_ZN4llvm25SmallVectorTemplateCommonINS_8AsmTokenEvE5frontEv(ptr noundef nonnull align 8 dereferenceable(16) %26)
  ret ptr %27
}

; Function Attrs: mustprogress nounwind uwtable
define linkonce_odr hidden noundef zeroext i1 @_ZNK4llvm10MCAsmLexer5isNotENS_8AsmToken9TokenKindE(ptr noundef nonnull align 8 dereferenceable(144) %0, i32 noundef %1) #0 comdat align 2 {
  %3 = alloca ptr, align 8
  %4 = alloca i32, align 4
  store ptr %0, ptr %3, align 8
  store i32 %1, ptr %4, align 4
  %5 = load ptr, ptr %3, align 8
  %6 = call noundef nonnull align 8 dereferenceable(40) ptr @_ZNK4llvm10MCAsmLexer6getTokEv(ptr noundef nonnull align 8 dereferenceable(144) %5)
  %7 = load i32, ptr %4, align 4
  %8 = call noundef zeroext i1 @_ZNK4llvm8AsmToken5isNotENS0_9TokenKindE(ptr noundef nonnull align 8 dereferenceable(40) %6, i32 noundef %7)
  ret i1 %8
}

; Function Attrs: mustprogress nounwind uwtable
define linkonce_odr hidden noundef ptr @_ZNK4llvm5SMLoc10getPointerEv(ptr noundef nonnull align 8 dereferenceable(8) %0) #0 comdat align 2 {
  %2 = alloca ptr, align 8
  store ptr %0, ptr %2, align 8
  %3 = load ptr, ptr %2, align 8
  %4 = getelementptr inbounds nuw %"class.llvm::SMLoc", ptr %3, i32 0, i32 0
  %5 = load ptr, ptr %4, align 8
  ret ptr %5
}

; Function Attrs: mustprogress nounwind uwtable
define internal { ptr, i64 } @_ZN12_GLOBAL__N_110MasmParser27parseStringToEndOfStatementEv(ptr noundef nonnull align 8 dereferenceable(1144) %0) unnamed_addr #0 align 2 {
  %2 = alloca %"class.llvm::StringRef", align 8
  %3 = alloca ptr, align 8
  %4 = alloca ptr, align 8
  %5 = alloca %"class.llvm::SMLoc", align 8
  %6 = alloca ptr, align 8
  %7 = alloca %"class.llvm::SMLoc", align 8
  store ptr %0, ptr %3, align 8
  %8 = load ptr, ptr %3, align 8
  %9 = call noundef nonnull align 8 dereferenceable(40) ptr @_ZNK4llvm11MCAsmParser6getTokEv(ptr noundef nonnull align 8 dereferenceable(34) %8)
  %10 = call ptr @_ZNK4llvm8AsmToken6getLocEv(ptr noundef nonnull align 8 dereferenceable(40) %9)
  %11 = getelementptr inbounds nuw %"class.llvm::SMLoc", ptr %5, i32 0, i32 0
  store ptr %10, ptr %11, align 8
  %12 = call noundef ptr @_ZNK4llvm5SMLoc10getPointerEv(ptr noundef nonnull align 8 dereferenceable(8) %5)
  store ptr %12, ptr %4, align 8
  br label %13

13:                                               ; preds = %21, %1
  %14 = getelementptr inbounds nuw %"class.(anonymous namespace)::MasmParser", ptr %8, i32 0, i32 2
  %15 = call noundef zeroext i1 @_ZNK4llvm10MCAsmLexer5isNotENS_8AsmToken9TokenKindE(ptr noundef nonnull align 8 dereferenceable(144) %14, i32 noundef 9)
  br i1 %15, label %16, label %19

16:                                               ; preds = %13
  %17 = getelementptr inbounds nuw %"class.(anonymous namespace)::MasmParser", ptr %8, i32 0, i32 2
  %18 = call noundef zeroext i1 @_ZNK4llvm10MCAsmLexer5isNotENS_8AsmToken9TokenKindE(ptr noundef nonnull align 8 dereferenceable(144) %17, i32 noundef 0)
  br label %19

19:                                               ; preds = %16, %13
  %20 = phi i1 [ false, %13 ], [ %18, %16 ]
  br i1 %20, label %21, label %24

21:                                               ; preds = %19
  %22 = getelementptr inbounds nuw %"class.(anonymous namespace)::MasmParser", ptr %8, i32 0, i32 2
  %23 = call noundef nonnull align 8 dereferenceable(40) ptr @_ZN4llvm10MCAsmLexer3LexEv(ptr noundef nonnull align 8 dereferenceable(144) %22)
  br label %13, !llvm.loop !12

24:                                               ; preds = %19
  %25 = call noundef nonnull align 8 dereferenceable(40) ptr @_ZNK4llvm11MCAsmParser6getTokEv(ptr noundef nonnull align 8 dereferenceable(34) %8)
  %26 = call ptr @_ZNK4llvm8AsmToken6getLocEv(ptr noundef nonnull align 8 dereferenceable(40) %25)
  %27 = getelementptr inbounds nuw %"class.llvm::SMLoc", ptr %7, i32 0, i32 0
  store ptr %26, ptr %27, align 8
  %28 = call noundef ptr @_ZNK4llvm5SMLoc10getPointerEv(ptr noundef nonnull align 8 dereferenceable(8) %7)
  store ptr %28, ptr %6, align 8
  %29 = load ptr, ptr %4, align 8
  %30 = load ptr, ptr %6, align 8
  %31 = load ptr, ptr %4, align 8
  %32 = ptrtoint ptr %30 to i64
  %33 = ptrtoint ptr %31 to i64
  %34 = sub i64 %32, %33
  call void @_ZN4llvm9StringRefC2EPKcm(ptr noundef nonnull align 8 dereferenceable(16) %2, ptr noundef %29, i64 noundef %34)
  %35 = load { ptr, i64 }, ptr %2, align 8
  ret { ptr, i64 } %35
}