; Function Attrs: mustprogress nounwind uwtable
define internal { ptr, i64 } @_ZN12_GLOBAL__N_110MasmParser27parseStringToEndOfStatementEv(ptr noundef nonnull align 8 dereferenceable(1144) %0) unnamed_addr #0 align 2 {
  %2 = alloca %"class.llvm::AsmToken", align 8
  %3 = tail call noundef nonnull align 8 dereferenceable(40) ptr @_ZNK4llvm11MCAsmParser6getTokEv(ptr noundef nonnull align 8 dereferenceable(34) %0) #24
  %4 = tail call ptr @_ZNK4llvm8AsmToken6getLocEv(ptr noundef nonnull align 8 dereferenceable(40) %3) #24
  %5 = getelementptr inbounds nuw i8, ptr %0, i64 40
  %6 = getelementptr inbounds nuw i8, ptr %0, i64 48
  %7 = getelementptr inbounds nuw i8, ptr %0, i64 155
  %8 = getelementptr inbounds nuw i8, ptr %2, i64 32
  %9 = getelementptr inbounds nuw i8, ptr %2, i64 24
  br label %10

10:                                               ; preds = %_ZN4llvm10MCAsmLexer3LexEv.exit, %1
  %11 = load ptr, ptr %6, align 8
  %12 = load i32, ptr %11, align 8
  switch i32 %12, label %13 [
    i32 9, label %.critedge
    i32 0, label %.critedge
  ]

13:                                               ; preds = %10
  call void @llvm.lifetime.start.p0(i64 40, ptr nonnull %2)
  %14 = icmp eq i32 %12, 9
  %15 = zext i1 %14 to i8
  store i8 %15, ptr %7, align 1
  %16 = call noundef ptr @_ZN4llvm15SmallVectorImplINS_8AsmTokenEE5eraseEPKS1_(ptr noundef nonnull align 8 dereferenceable(16) %6, ptr noundef nonnull %11)
  %17 = call noundef zeroext i1 @_ZNK4llvm15SmallVectorBaseIjE5emptyEv(ptr noundef nonnull align 8 dereferenceable(16) %6) #24
  br i1 %17, label %18, label %_ZN4llvm10MCAsmLexer3LexEv.exit

18:                                               ; preds = %13
  %19 = load ptr, ptr %5, align 8
  %20 = load ptr, ptr %19, align 8
  call void %20(ptr dead_on_unwind nonnull writable sret(%"class.llvm::AsmToken") align 8 %2, ptr noundef nonnull align 8 dereferenceable(144) %5) #24
  %21 = load ptr, ptr %6, align 8
  %22 = call noundef ptr @_ZN4llvm15SmallVectorImplINS_8AsmTokenEE15insert_one_implIRKS1_EEPS1_S6_OT_(ptr noundef nonnull align 8 dereferenceable(16) %6, ptr noundef %21, ptr noundef nonnull align 8 dereferenceable(40) %2)
  %23 = load i32, ptr %8, align 8
  %24 = icmp ugt i32 %23, 64
  br i1 %24, label %25, label %_ZN4llvm10MCAsmLexer3LexEv.exit

25:                                               ; preds = %18
  %26 = load ptr, ptr %9, align 8
  %27 = icmp eq ptr %26, null
  br i1 %27, label %_ZN4llvm10MCAsmLexer3LexEv.exit, label %28

28:                                               ; preds = %25
  call void @_ZdaPv(ptr noundef nonnull %26) #26
  br label %_ZN4llvm10MCAsmLexer3LexEv.exit

_ZN4llvm10MCAsmLexer3LexEv.exit:                  ; preds = %13, %18, %25, %28
  call void @llvm.lifetime.end.p0(i64 40, ptr nonnull %2)
  br label %10, !llvm.loop !76

.critedge:                                        ; preds = %10, %10
  %29 = call noundef nonnull align 8 dereferenceable(40) ptr @_ZNK4llvm11MCAsmParser6getTokEv(ptr noundef nonnull align 8 dereferenceable(34) %0) #24
  %30 = call ptr @_ZNK4llvm8AsmToken6getLocEv(ptr noundef nonnull align 8 dereferenceable(40) %29) #24
  %31 = ptrtoint ptr %30 to i64
  %32 = ptrtoint ptr %4 to i64
  %33 = sub i64 %31, %32
  %.fca.0.insert = insertvalue { ptr, i64 } poison, ptr %4, 0
  %.fca.1.insert = insertvalue { ptr, i64 } %.fca.0.insert, i64 %33, 1
  ret { ptr, i64 } %.fca.1.insert
}